target datalayout = "e-m:e-p270:32:32-p271:32:32-p272:64:64-i64:64-i128:128-f80:128-n8:16:32:64-S128"
target triple = "x86_64-pc-linux-gnu"

%struct.bignum_st = type { ptr, i32, i32, i32, i32 }

@.str = private unnamed_addr constant [120 x i8] c"generated/home/dtcxzyw/WorkSpace/Projects/compilers/llvm-opt-benchmark/bench/libquic/libquic/boringssl/crypto/bn/sqrt.c\00", align 1

; Function Attrs: nounwind uwtable
define hidden i32 @BN_sqrt(ptr noundef %0, ptr noundef %1, ptr noundef %2) #0 {
  %4 = alloca i32, align 4
  %5 = alloca ptr, align 8
  %6 = alloca ptr, align 8
  %7 = alloca ptr, align 8
  %8 = alloca ptr, align 8
  %9 = alloca ptr, align 8
  %10 = alloca ptr, align 8
  %11 = alloca ptr, align 8
  %12 = alloca ptr, align 8
  %13 = alloca i32, align 4
  %14 = alloca i32, align 4
  %15 = alloca i32, align 4
  store ptr %0, ptr %5, align 8, !tbaa !6
  store ptr %1, ptr %6, align 8, !tbaa !6
  store ptr %2, ptr %7, align 8, !tbaa !11
  call void @llvm.lifetime.start.p0(i64 8, ptr %8) #3
  call void @llvm.lifetime.start.p0(i64 8, ptr %9) #3
  call void @llvm.lifetime.start.p0(i64 8, ptr %10) #3
  call void @llvm.lifetime.start.p0(i64 8, ptr %11) #3
  call void @llvm.lifetime.start.p0(i64 8, ptr %12) #3
  call void @llvm.lifetime.start.p0(i64 4, ptr %13) #3
  store i32 0, ptr %13, align 4, !tbaa !13
  call void @llvm.lifetime.start.p0(i64 4, ptr %14) #3
  store i32 0, ptr %14, align 4, !tbaa !13
  %16 = load ptr, ptr %6, align 8, !tbaa !6
  %17 = getelementptr inbounds nuw %struct.bignum_st, ptr %16, i32 0, i32 3
  %18 = load i32, ptr %17, align 8, !tbaa !17
  %19 = icmp ne i32 %18, 0
  br i1 %19, label %20, label %21

20:                                               ; preds = %3
  call void @ERR_put_error(i32 noundef 3, i32 noundef 0, i32 noundef 109, ptr noundef @.str, i32 noundef 437)
  store i32 0, ptr %4, align 4
  store i32 1, ptr %15, align 4
  br label %132

21:                                               ; preds = %3
  %22 = load ptr, ptr %6, align 8, !tbaa !6
  %23 = call i32 @BN_is_zero(ptr noundef %22)
  %24 = icmp ne i32 %23, 0
  br i1 %24, label %25, label %27

25:                                               ; preds = %21
  %26 = load ptr, ptr %5, align 8, !tbaa !6
  call void @BN_zero(ptr noundef %26)
  store i32 1, ptr %4, align 4
  store i32 1, ptr %15, align 4
  br label %132

27:                                               ; preds = %21
  %28 = load ptr, ptr %7, align 8, !tbaa !11
  call void @BN_CTX_start(ptr noundef %28)
  %29 = load ptr, ptr %5, align 8, !tbaa !6
  %30 = load ptr, ptr %6, align 8, !tbaa !6
  %31 = icmp eq ptr %29, %30
  br i1 %31, label %32, label %35

32:                                               ; preds = %27
  %33 = load ptr, ptr %7, align 8, !tbaa !11
  %34 = call ptr @BN_CTX_get(ptr noundef %33)
  store ptr %34, ptr %8, align 8, !tbaa !6
  br label %37

35:                                               ; preds = %27
  %36 = load ptr, ptr %5, align 8, !tbaa !6
  store ptr %36, ptr %8, align 8, !tbaa !6
  br label %37

37:                                               ; preds = %35, %32
  %38 = load ptr, ptr %7, align 8, !tbaa !11
  %39 = call ptr @BN_CTX_get(ptr noundef %38)
  store ptr %39, ptr %9, align 8, !tbaa !6
  %40 = load ptr, ptr %7, align 8, !tbaa !11
  %41 = call ptr @BN_CTX_get(ptr noundef %40)
  store ptr %41, ptr %11, align 8, !tbaa !6
  %42 = load ptr, ptr %7, align 8, !tbaa !11
  %43 = call ptr @BN_CTX_get(ptr noundef %42)
  store ptr %43, ptr %10, align 8, !tbaa !6
  %44 = load ptr, ptr %8, align 8, !tbaa !6
  %45 = icmp eq ptr %44, null
  br i1 %45, label %55, label %46

46:                                               ; preds = %37
  %47 = load ptr, ptr %9, align 8, !tbaa !6
  %48 = icmp eq ptr %47, null
  br i1 %48, label %55, label %49

49:                                               ; preds = %46
  %50 = load ptr, ptr %11, align 8, !tbaa !6
  %51 = icmp eq ptr %50, null
  br i1 %51, label %55, label %52

52:                                               ; preds = %49
  %53 = load ptr, ptr %10, align 8, !tbaa !6
  %54 = icmp eq ptr %53, null
  br i1 %54, label %55, label %56

55:                                               ; preds = %52, %49, %46, %37
  call void @ERR_put_error(i32 noundef 3, i32 noundef 0, i32 noundef 65, ptr noundef @.str, i32 noundef 455)
  br label %116

56:                                               ; preds = %52
  %57 = load ptr, ptr %8, align 8, !tbaa !6
  %58 = call ptr @BN_value_one()
  %59 = load ptr, ptr %6, align 8, !tbaa !6
  %60 = call i32 @BN_num_bits(ptr noundef %59)
  %61 = udiv i32 %60, 2
  %62 = call i32 @BN_lshift(ptr noundef %57, ptr noundef %58, i32 noundef %61)
  br label %63

63:                                               ; preds = %105, %56
  %64 = load ptr, ptr %9, align 8, !tbaa !6
  %65 = load ptr, ptr %6, align 8, !tbaa !6
  %66 = load ptr, ptr %8, align 8, !tbaa !6
  %67 = load ptr, ptr %7, align 8, !tbaa !11
  %68 = call i32 @BN_div(ptr noundef %64, ptr noundef null, ptr noundef %65, ptr noundef %66, ptr noundef %67)
  %69 = icmp ne i32 %68, 0
  br i1 %69, label %70, label %93

70:                                               ; preds = %63
  %71 = load ptr, ptr %9, align 8, !tbaa !6
  %72 = load ptr, ptr %9, align 8, !tbaa !6
  %73 = load ptr, ptr %8, align 8, !tbaa !6
  %74 = call i32 @BN_add(ptr noundef %71, ptr noundef %72, ptr noundef %73)
  %75 = icmp ne i32 %74, 0
  br i1 %75, label %76, label %93

76:                                               ; preds = %70
  %77 = load ptr, ptr %8, align 8, !tbaa !6
  %78 = load ptr, ptr %9, align 8, !tbaa !6
  %79 = call i32 @BN_rshift1(ptr noundef %77, ptr noundef %78)
  %80 = icmp ne i32 %79, 0
  br i1 %80, label %81, label %93

81:                                               ; preds = %76
  %82 = load ptr, ptr %9, align 8, !tbaa !6
  %83 = load ptr, ptr %8, align 8, !tbaa !6
  %84 = load ptr, ptr %7, align 8, !tbaa !11
  %85 = call i32 @BN_sqr(ptr noundef %82, ptr noundef %83, ptr noundef %84)
  %86 = icmp ne i32 %85, 0
  br i1 %86, label %87, label %93

87:                                               ; preds = %81
  %88 = load ptr, ptr %10, align 8, !tbaa !6
  %89 = load ptr, ptr %6, align 8, !tbaa !6
  %90 = load ptr, ptr %9, align 8, !tbaa !6
  %91 = call i32 @BN_sub(ptr noundef %88, ptr noundef %89, ptr noundef %90)
  %92 = icmp ne i32 %91, 0
  br i1 %92, label %94, label %93

93:                                               ; preds = %87, %81, %76, %70, %63
  call void @ERR_put_error(i32 noundef 3, i32 noundef 0, i32 noundef 3, ptr noundef @.str, i32 noundef 473)
  br label %116

94:                                               ; preds = %87
  %95 = load ptr, ptr %10, align 8, !tbaa !6
  %96 = getelementptr inbounds nuw %struct.bignum_st, ptr %95, i32 0, i32 3
  store i32 0, ptr %96, align 8, !tbaa !17
  %97 = load i32, ptr %14, align 4, !tbaa !13
  %98 = icmp ne i32 %97, 0
  br i1 %98, label %99, label %105

99:                                               ; preds = %94
  %100 = load ptr, ptr %10, align 8, !tbaa !6
  %101 = load ptr, ptr %11, align 8, !tbaa !6
  %102 = call i32 @BN_cmp(ptr noundef %100, ptr noundef %101)
  %103 = icmp sge i32 %102, 0
  br i1 %103, label %104, label %105

104:                                              ; preds = %99
  br label %109

105:                                              ; preds = %99, %94
  store i32 1, ptr %14, align 4, !tbaa !13
  %106 = load ptr, ptr %11, align 8, !tbaa !6
  store ptr %106, ptr %12, align 8, !tbaa !6
  %107 = load ptr, ptr %10, align 8, !tbaa !6
  store ptr %107, ptr %11, align 8, !tbaa !6
  %108 = load ptr, ptr %12, align 8, !tbaa !6
  store ptr %108, ptr %10, align 8, !tbaa !6
  br label %63

109:                                              ; preds = %104
  %110 = load ptr, ptr %9, align 8, !tbaa !6
  %111 = load ptr, ptr %6, align 8, !tbaa !6
  %112 = call i32 @BN_cmp(ptr noundef %110, ptr noundef %111)
  %113 = icmp ne i32 %112, 0
  br i1 %113, label %114, label %115

114:                                              ; preds = %109
  call void @ERR_put_error(i32 noundef 3, i32 noundef 0, i32 noundef 110, ptr noundef @.str, i32 noundef 493)
  br label %116

115:                                              ; preds = %109
  store i32 1, ptr %13, align 4, !tbaa !13
  br label %116

116:                                              ; preds = %115, %114, %93, %55
  %117 = load i32, ptr %13, align 4, !tbaa !13
  %118 = icmp ne i32 %117, 0
  br i1 %118, label %119, label %129

119:                                              ; preds = %116
  %120 = load ptr, ptr %5, align 8, !tbaa !6
  %121 = load ptr, ptr %6, align 8, !tbaa !6
  %122 = icmp eq ptr %120, %121
  br i1 %122, label %123, label %129

123:                                              ; preds = %119
  %124 = load ptr, ptr %5, align 8, !tbaa !6
  %125 = load ptr, ptr %8, align 8, !tbaa !6
  %126 = call ptr @BN_copy(ptr noundef %124, ptr noundef %125)
  %127 = icmp ne ptr %126, null
  br i1 %127, label %129, label %128

128:                                              ; preds = %123
  store i32 0, ptr %13, align 4, !tbaa !13
  br label %129

129:                                              ; preds = %128, %123, %119, %116
  %130 = load ptr, ptr %7, align 8, !tbaa !11
  call void @BN_CTX_end(ptr noundef %130)
  %131 = load i32, ptr %13, align 4, !tbaa !13
  store i32 %131, ptr %4, align 4
  store i32 1, ptr %15, align 4
  br label %132

132:                                              ; preds = %129, %25, %20
  call void @llvm.lifetime.end.p0(i64 4, ptr %14) #3
  call void @llvm.lifetime.end.p0(i64 4, ptr %13) #3
  call void @llvm.lifetime.end.p0(i64 8, ptr %12) #3
  call void @llvm.lifetime.end.p0(i64 8, ptr %11) #3
  call void @llvm.lifetime.end.p0(i64 8, ptr %10) #3
  call void @llvm.lifetime.end.p0(i64 8, ptr %9) #3
  call void @llvm.lifetime.end.p0(i64 8, ptr %8) #3
  %133 = load i32, ptr %4, align 4
  ret i32 %133
}