; Function Attrs: nounwind uwtable
define hidden range(i32 0, 2) i32 @BN_sqrt(ptr noundef %0, ptr noundef %1, ptr noundef %2) local_unnamed_addr #0 {
  %4 = getelementptr inbounds nuw i8, ptr %1, i64 16
  %5 = load i32, ptr %4, align 8, !tbaa !8
  %.not = icmp eq i32 %5, 0
  br i1 %.not, label %7, label %6

6:                                                ; preds = %3
  tail call void @ERR_put_error(i32 noundef 3, i32 noundef 0, i32 noundef 109, ptr noundef nonnull @.str, i32 noundef 437) #2
  br label %49

7:                                                ; preds = %3
  %8 = tail call i32 @BN_is_zero(ptr noundef nonnull %1) #2
  %.not63 = icmp eq i32 %8, 0
  br i1 %.not63, label %10, label %9

9:                                                ; preds = %7
  tail call void @BN_zero(ptr noundef %0) #2
  br label %49

10:                                               ; preds = %7
  tail call void @BN_CTX_start(ptr noundef %2) #2
  %11 = icmp eq ptr %0, %1
  br i1 %11, label %12, label %14

12:                                               ; preds = %10
  %13 = tail call ptr @BN_CTX_get(ptr noundef %2) #2
  br label %14

14:                                               ; preds = %10, %12
  %.057 = phi ptr [ %13, %12 ], [ %0, %10 ]
  %15 = tail call ptr @BN_CTX_get(ptr noundef %2) #2
  %16 = tail call ptr @BN_CTX_get(ptr noundef %2) #2
  %17 = tail call ptr @BN_CTX_get(ptr noundef %2) #2
  %18 = icmp eq ptr %.057, null
  %19 = icmp eq ptr %15, null
  %or.cond = select i1 %18, i1 true, i1 %19
  %20 = icmp eq ptr %16, null
  %or.cond3 = select i1 %or.cond, i1 true, i1 %20
  %21 = icmp eq ptr %17, null
  %or.cond5 = select i1 %or.cond3, i1 true, i1 %21
  br i1 %or.cond5, label %22, label %23

22:                                               ; preds = %14
  tail call void @ERR_put_error(i32 noundef 3, i32 noundef 0, i32 noundef 65, ptr noundef nonnull @.str, i32 noundef 455) #2
  br label %.critedge

23:                                               ; preds = %14
  %24 = tail call ptr @BN_value_one() #2
  %25 = tail call i32 @BN_num_bits(ptr noundef nonnull %1) #2
  %26 = lshr i32 %25, 1
  %27 = tail call i32 @BN_lshift(ptr noundef nonnull %.057, ptr noundef %24, i32 noundef %26) #2
  %28 = tail call i32 @BN_div(ptr noundef nonnull %15, ptr noundef null, ptr noundef nonnull %1, ptr noundef nonnull %.057, ptr noundef %2) #2
  %.not6473 = icmp eq i32 %28, 0
  br i1 %.not6473, label %._crit_edge, label %.lr.ph

.lr.ph:                                           ; preds = %23, %41
  %.not6976 = phi i1 [ false, %41 ], [ true, %23 ]
  %.05575 = phi ptr [ %.05674, %41 ], [ %16, %23 ]
  %.05674 = phi ptr [ %.05575, %41 ], [ %17, %23 ]
  %29 = tail call i32 @BN_add(ptr noundef nonnull %15, ptr noundef nonnull %15, ptr noundef nonnull %.057) #2
  %.not65 = icmp eq i32 %29, 0
  br i1 %.not65, label %._crit_edge, label %30

30:                                               ; preds = %.lr.ph
  %31 = tail call i32 @BN_rshift1(ptr noundef nonnull %.057, ptr noundef nonnull %15) #2
  %.not66 = icmp eq i32 %31, 0
  br i1 %.not66, label %._crit_edge, label %32

32:                                               ; preds = %30
  %33 = tail call i32 @BN_sqr(ptr noundef nonnull %15, ptr noundef nonnull %.057, ptr noundef %2) #2
  %.not67 = icmp eq i32 %33, 0
  br i1 %.not67, label %._crit_edge, label %34

34:                                               ; preds = %32
  %35 = tail call i32 @BN_sub(ptr noundef %.05674, ptr noundef nonnull %1, ptr noundef nonnull %15) #2
  %.not68 = icmp eq i32 %35, 0
  br i1 %.not68, label %._crit_edge, label %36

._crit_edge:                                      ; preds = %41, %.lr.ph, %30, %32, %34, %23
  tail call void @ERR_put_error(i32 noundef 3, i32 noundef 0, i32 noundef 3, ptr noundef nonnull @.str, i32 noundef 473) #2
  br label %.critedge

36:                                               ; preds = %34
  %37 = getelementptr inbounds nuw i8, ptr %.05674, i64 16
  store i32 0, ptr %37, align 8, !tbaa !8
  br i1 %.not6976, label %41, label %38

38:                                               ; preds = %36
  %39 = tail call i32 @BN_cmp(ptr noundef nonnull %.05674, ptr noundef nonnull %.05575) #2
  %40 = icmp sgt i32 %39, -1
  br i1 %40, label %43, label %41

41:                                               ; preds = %38, %36
  %42 = tail call i32 @BN_div(ptr noundef nonnull %15, ptr noundef null, ptr noundef nonnull %1, ptr noundef nonnull %.057, ptr noundef %2) #2
  %.not64 = icmp eq i32 %42, 0
  br i1 %.not64, label %._crit_edge, label %.lr.ph

43:                                               ; preds = %38
  %44 = tail call i32 @BN_cmp(ptr noundef nonnull %15, ptr noundef nonnull %1) #2
  %.not70 = icmp eq i32 %44, 0
  br i1 %.not70, label %46, label %45

45:                                               ; preds = %43
  tail call void @ERR_put_error(i32 noundef 3, i32 noundef 0, i32 noundef 110, ptr noundef nonnull @.str, i32 noundef 493) #2
  br label %.critedge

46:                                               ; preds = %43
  br i1 %11, label %47, label %.critedge

47:                                               ; preds = %46
  %48 = tail call ptr @BN_copy(ptr noundef %0, ptr noundef nonnull %.057) #2
  %.not72 = icmp ne ptr %48, null
  %spec.select = zext i1 %.not72 to i32
  br label %.critedge

.critedge:                                        ; preds = %47, %22, %45, %._crit_edge, %46
  %.1 = phi i32 [ 1, %46 ], [ %spec.select, %47 ], [ 0, %._crit_edge ], [ 0, %45 ], [ 0, %22 ]
  tail call void @BN_CTX_end(ptr noundef %2) #2
  br label %49

49:                                               ; preds = %.critedge, %9, %6
  %.054 = phi i32 [ 0, %6 ], [ 1, %9 ], [ %.1, %.critedge ]
  ret i32 %.054
}